; Function Attrs: mustprogress uwtable
define hidden void @_ZNK4cvc58internal9TCtxStack10getCurrentEv(ptr dead_on_unwind noalias writable writeonly sret(%"struct.std::pair") align 8 captures(none) initializes((0, 12)) %0, ptr noundef nonnull readonly align 8 captures(none) dereferenceable(40) %1) local_unnamed_addr #4 align 2 {
  %3 = getelementptr inbounds nuw i8, ptr %1, i64 16
  %4 = load ptr, ptr %3, align 8, !tbaa !40
  %5 = getelementptr inbounds i8, ptr %4, i64 -16
  %6 = load ptr, ptr %5, align 8, !tbaa !16
  store ptr %6, ptr %0, align 8, !tbaa !16
  %7 = load i64, ptr %6, align 8
  %8 = lshr i64 %7, 40
  %9 = trunc nuw nsw i64 %8 to i32
  %10 = and i32 %9, 1048575
  %11 = icmp samesign ult i32 %10, 1048574
  br i1 %11, label %12, label %17, !prof !19

12:                                               ; preds = %2
  %13 = add i64 %7, 1099511627776
  %14 = and i64 %13, 1152920405095219200
  %15 = and i64 %7, -1152920405095219201
  %16 = or disjoint i64 %14, %15
  store i64 %16, ptr %6, align 8
  br label %_ZNSt4pairIN4cvc58internal12NodeTemplateILb1EEEjEC2ERKS4_.exit

17:                                               ; preds = %2
  %18 = icmp eq i32 %10, 1048574
  br i1 %18, label %19, label %_ZNSt4pairIN4cvc58internal12NodeTemplateILb1EEEjEC2ERKS4_.exit, !prof !20

19:                                               ; preds = %17
  %20 = or i64 %7, 1152920405095219200
  store i64 %20, ptr %6, align 8
  tail call void @_ZN4cvc58internal4expr9NodeValue20markRefCountMaxedOutEv(ptr noundef nonnull align 8 dereferenceable(24) %6)
  br label %_ZNSt4pairIN4cvc58internal12NodeTemplateILb1EEEjEC2ERKS4_.exit

_ZNSt4pairIN4cvc58internal12NodeTemplateILb1EEEjEC2ERKS4_.exit: ; preds = %12, %17, %19
  %21 = getelementptr inbounds nuw i8, ptr %0, i64 8
  %22 = getelementptr inbounds i8, ptr %4, i64 -8
  %23 = load i32, ptr %22, align 8, !tbaa !21
  store i32 %23, ptr %21, align 8, !tbaa !21
  ret void
}